target datalayout = "e-m:e-p270:32:32-p271:32:32-p272:64:64-i64:64-i128:128-f80:128-n8:16:32:64-S128"
target triple = "x86_64-unknown-linux-gnu"

%"class.llvh::StringRef" = type { ptr, i64 }
%"class.llvh::SmallVectorImpl" = type { %"class.llvh::SmallVectorTemplateBase" }
%"class.llvh::SmallVectorTemplateBase" = type { %"class.llvh::SmallVectorTemplateCommon" }
%"class.llvh::SmallVectorTemplateCommon" = type { %"class.llvh::SmallVectorBase" }
%"class.llvh::SmallVectorBase" = type { ptr, i32, i32 }
%"struct.llvh::AlignedCharArrayUnion" = type { %"struct.llvh::AlignedCharArray" }
%"struct.llvh::AlignedCharArray" = type { [1 x i8] }
%"class.llvh::SmallString.11" = type { %"class.llvh::SmallVector.12" }
%"class.llvh::SmallVector.12" = type { %"class.llvh::SmallVectorImpl", %"struct.llvh::SmallVectorStorage.13" }
%"struct.llvh::SmallVectorStorage.13" = type { [128 x %"struct.llvh::AlignedCharArrayUnion"] }

; Function Attrs: mustprogress nounwind uwtable
define linkonce_odr hidden void @_ZN4llvh15SmallVectorBaseC2EPvm(ptr noundef nonnull align 8 dereferenceable(16) %this, ptr noundef %FirstEl, i64 noundef %Capacity) unnamed_addr #0 comdat align 2 {
entry:
  %this.addr = alloca ptr, align 8
  %FirstEl.addr = alloca ptr, align 8
  %Capacity.addr = alloca i64, align 8
  store ptr %this, ptr %this.addr, align 8
  store ptr %FirstEl, ptr %FirstEl.addr, align 8
  store i64 %Capacity, ptr %Capacity.addr, align 8
  %this1 = load ptr, ptr %this.addr, align 8
  %BeginX = getelementptr inbounds %"class.llvh::SmallVectorBase", ptr %this1, i32 0, i32 0
  %0 = load ptr, ptr %FirstEl.addr, align 8
  store ptr %0, ptr %BeginX, align 8
  %Size = getelementptr inbounds %"class.llvh::SmallVectorBase", ptr %this1, i32 0, i32 1
  store i32 0, ptr %Size, align 8
  %Capacity2 = getelementptr inbounds %"class.llvh::SmallVectorBase", ptr %this1, i32 0, i32 2
  %1 = load i64, ptr %Capacity.addr, align 8
  %conv = trunc i64 %1 to i32
  store i32 %conv, ptr %Capacity2, align 4
  ret void
}

; Function Attrs: mustprogress nounwind uwtable
define linkonce_odr hidden noundef ptr @_ZNK4llvh25SmallVectorTemplateCommonIcvE10getFirstElEv(ptr noundef nonnull align 8 dereferenceable(16) %this) #0 comdat align 2 {
entry:
  %this.addr = alloca ptr, align 8
  store ptr %this, ptr %this.addr, align 8
  %this1 = load ptr, ptr %this.addr, align 8
  %add.ptr = getelementptr inbounds i8, ptr %this1, i64 16
  ret ptr %add.ptr
}

; Function Attrs: mustprogress nounwind uwtable
define linkonce_odr hidden void @_ZN4llvh25SmallVectorTemplateCommonIcvEC2Em(ptr noundef nonnull align 8 dereferenceable(16) %this, i64 noundef %Size) unnamed_addr #0 comdat align 2 {
entry:
  %this.addr = alloca ptr, align 8
  %Size.addr = alloca i64, align 8
  store ptr %this, ptr %this.addr, align 8
  store i64 %Size, ptr %Size.addr, align 8
  %this1 = load ptr, ptr %this.addr, align 8
  %call = call noundef ptr @_ZNK4llvh25SmallVectorTemplateCommonIcvE10getFirstElEv(ptr noundef nonnull align 8 dereferenceable(16) %this1)
  %0 = load i64, ptr %Size.addr, align 8
  call void @_ZN4llvh15SmallVectorBaseC2EPvm(ptr noundef nonnull align 8 dereferenceable(16) %this1, ptr noundef %call, i64 noundef %0)
  ret void
}

; Function Attrs: mustprogress nounwind uwtable
define linkonce_odr hidden noundef zeroext i1 @_ZNK4llvh25SmallVectorTemplateCommonIcvE7isSmallEv(ptr noundef nonnull align 8 dereferenceable(16) %this) #0 comdat align 2 {
entry:
  %this.addr = alloca ptr, align 8
  store ptr %this, ptr %this.addr, align 8
  %this1 = load ptr, ptr %this.addr, align 8
  %BeginX = getelementptr inbounds %"class.llvh::SmallVectorBase", ptr %this1, i32 0, i32 0
  %0 = load ptr, ptr %BeginX, align 8
  %call = call noundef ptr @_ZNK4llvh25SmallVectorTemplateCommonIcvE10getFirstElEv(ptr noundef nonnull align 8 dereferenceable(16) %this1)
  %cmp = icmp eq ptr %0, %call
  ret i1 %cmp
}

; Function Attrs: mustprogress nounwind uwtable
define linkonce_odr hidden void @_ZN4llvh23SmallVectorTemplateBaseIcLb1EEC2Em(ptr noundef nonnull align 8 dereferenceable(16) %this, i64 noundef %Size) unnamed_addr #0 comdat align 2 {
entry:
  %this.addr = alloca ptr, align 8
  %Size.addr = alloca i64, align 8
  store ptr %this, ptr %this.addr, align 8
  store i64 %Size, ptr %Size.addr, align 8
  %this1 = load ptr, ptr %this.addr, align 8
  %0 = load i64, ptr %Size.addr, align 8
  call void @_ZN4llvh25SmallVectorTemplateCommonIcvEC2Em(ptr noundef nonnull align 8 dereferenceable(16) %this1, i64 noundef %0)
  ret void
}

; Function Attrs: mustprogress nounwind uwtable
define linkonce_odr hidden void @_ZN4llvh15SmallVectorImplIcED2Ev(ptr noundef nonnull align 8 dereferenceable(16) %this) unnamed_addr #0 comdat align 2 {
entry:
  %this.addr.i = alloca ptr, align 8
  %this.addr = alloca ptr, align 8
  store ptr %this, ptr %this.addr, align 8
  %this1 = load ptr, ptr %this.addr, align 8
  %call = call noundef zeroext i1 @_ZNK4llvh25SmallVectorTemplateCommonIcvE7isSmallEv(ptr noundef nonnull align 8 dereferenceable(16) %this1)
  br i1 %call, label %if.end, label %if.then

if.then:                                          ; preds = %entry
  store ptr %this1, ptr %this.addr.i, align 8
  %this1.i = load ptr, ptr %this.addr.i, align 8
  %0 = load ptr, ptr %this1.i, align 8
  call void @free(ptr noundef %0) #9
  br label %if.end

if.end:                                           ; preds = %if.then, %entry
  ret void
}

; Function Attrs: mustprogress nounwind uwtable
define linkonce_odr hidden void @_ZN4llvh23SmallVectorTemplateBaseIcLb1EE13destroy_rangeEPcS2_(ptr noundef %0, ptr noundef %1) #0 comdat align 2 {
entry:
  %.addr = alloca ptr, align 8
  %.addr1 = alloca ptr, align 8
  store ptr %0, ptr %.addr, align 8
  store ptr %1, ptr %.addr1, align 8
  ret void
}

; Function Attrs: mustprogress nounwind uwtable
define linkonce_odr hidden noundef i64 @_ZNK4llvh15SmallVectorBase4sizeEv(ptr noundef nonnull align 8 dereferenceable(16) %this) #0 comdat align 2 {
entry:
  %this.addr = alloca ptr, align 8
  store ptr %this, ptr %this.addr, align 8
  %this1 = load ptr, ptr %this.addr, align 8
  %Size = getelementptr inbounds %"class.llvh::SmallVectorBase", ptr %this1, i32 0, i32 1
  %0 = load i32, ptr %Size, align 8
  %conv = zext i32 %0 to i64
  ret i64 %conv
}

; Function Attrs: mustprogress nounwind uwtable
define linkonce_odr hidden void @_ZN4llvh15SmallVectorImplIcEC2Ej(ptr noundef nonnull align 8 dereferenceable(16) %this, i32 noundef %N) unnamed_addr #0 comdat align 2 {
entry:
  %this.addr = alloca ptr, align 8
  %N.addr = alloca i32, align 4
  store ptr %this, ptr %this.addr, align 8
  store i32 %N, ptr %N.addr, align 4
  %this1 = load ptr, ptr %this.addr, align 8
  %0 = load i32, ptr %N.addr, align 4
  %conv = zext i32 %0 to i64
  call void @_ZN4llvh23SmallVectorTemplateBaseIcLb1EEC2Em(ptr noundef nonnull align 8 dereferenceable(16) %this1, i64 noundef %conv)
  ret void
}

; Function Attrs: mustprogress nounwind uwtable
define linkonce_odr hidden void @_ZN4llvh11SmallVectorIcLj128EED2Ev(ptr noundef nonnull align 8 dereferenceable(144) %this) unnamed_addr #0 comdat align 2 {
entry:
  %this.addr.i.i = alloca ptr, align 8
  %this.addr.i3 = alloca ptr, align 8
  %this.addr.i = alloca ptr, align 8
  %this.addr = alloca ptr, align 8
  store ptr %this, ptr %this.addr, align 8
  %this1 = load ptr, ptr %this.addr, align 8
  store ptr %this1, ptr %this.addr.i, align 8
  %this1.i = load ptr, ptr %this.addr.i, align 8
  %0 = load ptr, ptr %this1.i, align 8
  store ptr %this1, ptr %this.addr.i3, align 8
  %this1.i4 = load ptr, ptr %this.addr.i3, align 8
  store ptr %this1.i4, ptr %this.addr.i.i, align 8
  %this1.i.i = load ptr, ptr %this.addr.i.i, align 8
  %1 = load ptr, ptr %this1.i.i, align 8
  %call2.i = call noundef i64 @_ZNK4llvh15SmallVectorBase4sizeEv(ptr noundef nonnull align 8 dereferenceable(16) %this1.i4)
  %add.ptr.i = getelementptr inbounds i8, ptr %1, i64 %call2.i
  call void @_ZN4llvh23SmallVectorTemplateBaseIcLb1EE13destroy_rangeEPcS2_(ptr noundef %0, ptr noundef %add.ptr.i)
  call void @_ZN4llvh15SmallVectorImplIcED2Ev(ptr noundef nonnull align 8 dereferenceable(16) %this1) #9
  ret void
}

; Function Attrs: mustprogress nounwind uwtable
define linkonce_odr noundef nonnull align 8 dereferenceable(8) ptr @_ZSt3minImERKT_S2_S2_(ptr noundef nonnull align 8 dereferenceable(8) %__a, ptr noundef nonnull align 8 dereferenceable(8) %__b) #0 comdat {
entry:
  %retval = alloca ptr, align 8
  %__a.addr = alloca ptr, align 8
  %__b.addr = alloca ptr, align 8
  store ptr %__a, ptr %__a.addr, align 8
  store ptr %__b, ptr %__b.addr, align 8
  %0 = load ptr, ptr %__b.addr, align 8
  %1 = load i64, ptr %0, align 8
  %2 = load ptr, ptr %__a.addr, align 8
  %3 = load i64, ptr %2, align 8
  %cmp = icmp ult i64 %1, %3
  br i1 %cmp, label %if.then, label %if.end

if.then:                                          ; preds = %entry
  %4 = load ptr, ptr %__b.addr, align 8
  store ptr %4, ptr %retval, align 8
  br label %return

if.end:                                           ; preds = %entry
  %5 = load ptr, ptr %__a.addr, align 8
  store ptr %5, ptr %retval, align 8
  br label %return

return:                                           ; preds = %if.end, %if.then
  %6 = load ptr, ptr %retval, align 8
  ret ptr %6
}

; Function Attrs: mustprogress nounwind uwtable
define linkonce_odr hidden void @_ZN4llvh11SmallVectorIcLj128EEC2Ev(ptr noundef nonnull align 8 dereferenceable(144) %this) unnamed_addr #0 comdat align 2 {
entry:
  %this.addr = alloca ptr, align 8
  store ptr %this, ptr %this.addr, align 8
  %this1 = load ptr, ptr %this.addr, align 8
  call void @_ZN4llvh15SmallVectorImplIcEC2Ej(ptr noundef nonnull align 8 dereferenceable(16) %this1, i32 noundef 128)
  ret void
}

; Function Attrs: mustprogress nounwind uwtable
define linkonce_odr hidden void @_ZN4llvh11SmallStringILj128EED2Ev(ptr noundef nonnull align 8 dereferenceable(144) %this) unnamed_addr #0 comdat align 2 {
entry:
  %this.addr = alloca ptr, align 8
  store ptr %this, ptr %this.addr, align 8
  %this1 = load ptr, ptr %this.addr, align 8
  call void @_ZN4llvh11SmallVectorIcLj128EED2Ev(ptr noundef nonnull align 8 dereferenceable(144) %this1) #9
  ret void
}

; Function Attrs: mustprogress nounwind uwtable
define hidden { ptr, i64 } @_ZN4llvh3sys4path13relative_pathENS_9StringRefENS1_5StyleE(ptr %path.coerce0, i64 %path.coerce1, i32 noundef %style) #0 {
entry:
  %this.addr.i6 = alloca ptr, align 8
  %data.addr.i = alloca ptr, align 8
  %length.addr.i = alloca i64, align 8
  %retval.i = alloca %"class.llvh::StringRef", align 8
  %this.addr.i3 = alloca ptr, align 8
  %Start.addr.i = alloca i64, align 8
  %N.addr.i = alloca i64, align 8
  %ref.tmp.i = alloca i64, align 8
  %this.addr.i = alloca ptr, align 8
  %retval = alloca %"class.llvh::StringRef", align 8
  %path = alloca %"class.llvh::StringRef", align 8
  %style.addr = alloca i32, align 4
  %root = alloca %"class.llvh::StringRef", align 8
  %agg.tmp = alloca %"class.llvh::StringRef", align 8
  %0 = getelementptr inbounds { ptr, i64 }, ptr %path, i32 0, i32 0
  store ptr %path.coerce0, ptr %0, align 8
  %1 = getelementptr inbounds { ptr, i64 }, ptr %path, i32 0, i32 1
  store i64 %path.coerce1, ptr %1, align 8
  store i32 %style, ptr %style.addr, align 4
  call void @llvm.memcpy.p0.p0.i64(ptr align 8 %agg.tmp, ptr align 8 %path, i64 16, i1 false)
  %2 = load i32, ptr %style.addr, align 4
  %3 = getelementptr inbounds { ptr, i64 }, ptr %agg.tmp, i32 0, i32 0
  %4 = load ptr, ptr %3, align 8
  %5 = getelementptr inbounds { ptr, i64 }, ptr %agg.tmp, i32 0, i32 1
  %6 = load i64, ptr %5, align 8
  %call = call { ptr, i64 } @_ZN4llvh3sys4path9root_pathENS_9StringRefENS1_5StyleE(ptr %4, i64 %6, i32 noundef %2)
  %7 = getelementptr inbounds { ptr, i64 }, ptr %root, i32 0, i32 0
  %8 = extractvalue { ptr, i64 } %call, 0
  store ptr %8, ptr %7, align 8
  %9 = getelementptr inbounds { ptr, i64 }, ptr %root, i32 0, i32 1
  %10 = extractvalue { ptr, i64 } %call, 1
  store i64 %10, ptr %9, align 8
  store ptr %root, ptr %this.addr.i, align 8
  %this1.i = load ptr, ptr %this.addr.i, align 8
  %Length.i = getelementptr inbounds %"class.llvh::StringRef", ptr %this1.i, i32 0, i32 1
  %11 = load i64, ptr %Length.i, align 8
  store ptr %path, ptr %this.addr.i3, align 8
  store i64 %11, ptr %Start.addr.i, align 8
  store i64 -1, ptr %N.addr.i, align 8
  %this1.i4 = load ptr, ptr %this.addr.i3, align 8
  %Length.i5 = getelementptr inbounds %"class.llvh::StringRef", ptr %this1.i4, i32 0, i32 1
  %call.i = call noundef nonnull align 8 dereferenceable(8) ptr @_ZSt3minImERKT_S2_S2_(ptr noundef nonnull align 8 dereferenceable(8) %Start.addr.i, ptr noundef nonnull align 8 dereferenceable(8) %Length.i5)
  %12 = load i64, ptr %call.i, align 8
  store i64 %12, ptr %Start.addr.i, align 8
  %13 = load ptr, ptr %this1.i4, align 8
  %14 = load i64, ptr %Start.addr.i, align 8
  %add.ptr.i = getelementptr inbounds i8, ptr %13, i64 %14
  %Length2.i = getelementptr inbounds %"class.llvh::StringRef", ptr %this1.i4, i32 0, i32 1
  %15 = load i64, ptr %Length2.i, align 8
  %16 = load i64, ptr %Start.addr.i, align 8
  %sub.i = sub i64 %15, %16
  store i64 %sub.i, ptr %ref.tmp.i, align 8
  %call3.i = call noundef nonnull align 8 dereferenceable(8) ptr @_ZSt3minImERKT_S2_S2_(ptr noundef nonnull align 8 dereferenceable(8) %N.addr.i, ptr noundef nonnull align 8 dereferenceable(8) %ref.tmp.i)
  %17 = load i64, ptr %call3.i, align 8
  store ptr %retval.i, ptr %this.addr.i6, align 8
  store ptr %add.ptr.i, ptr %data.addr.i, align 8
  store i64 %17, ptr %length.addr.i, align 8
  %this1.i7 = load ptr, ptr %this.addr.i6, align 8
  %18 = load ptr, ptr %data.addr.i, align 8
  store ptr %18, ptr %this1.i7, align 8
  %Length.i8 = getelementptr inbounds %"class.llvh::StringRef", ptr %this1.i7, i32 0, i32 1
  %19 = load i64, ptr %length.addr.i, align 8
  store i64 %19, ptr %Length.i8, align 8
  %20 = load { ptr, i64 }, ptr %retval.i, align 8
  %21 = getelementptr inbounds { ptr, i64 }, ptr %retval, i32 0, i32 0
  %22 = extractvalue { ptr, i64 } %20, 0
  store ptr %22, ptr %21, align 8
  %23 = getelementptr inbounds { ptr, i64 }, ptr %retval, i32 0, i32 1
  %24 = extractvalue { ptr, i64 } %20, 1
  store i64 %24, ptr %23, align 8
  %25 = load { ptr, i64 }, ptr %retval, align 8
  ret { ptr, i64 } %25
}

; Function Attrs: mustprogress nounwind uwtable
define linkonce_odr hidden void @_ZN4llvh11SmallStringILj128EEC2Ev(ptr noundef nonnull align 8 dereferenceable(144) %this) unnamed_addr #0 comdat align 2 {
entry:
  %this.addr = alloca ptr, align 8
  store ptr %this, ptr %this.addr, align 8
  %this1 = load ptr, ptr %this.addr, align 8
  call void @_ZN4llvh11SmallVectorIcLj128EEC2Ev(ptr noundef nonnull align 8 dereferenceable(144) %this1)
  ret void
}

; Function Attrs: mustprogress nounwind uwtable
define hidden noundef zeroext i1 @_ZN4llvh3sys4path17has_relative_pathERKNS_5TwineENS1_5StyleE(ptr noundef nonnull align 8 dereferenceable(18) %path, i32 noundef %style) #0 {
entry:
  %this.addr.i = alloca ptr, align 8
  %path.addr = alloca ptr, align 8
  %style.addr = alloca i32, align 4
  %path_storage = alloca %"class.llvh::SmallString.11", align 8
  %p = alloca %"class.llvh::StringRef", align 8
  %ref.tmp = alloca %"class.llvh::StringRef", align 8
  %agg.tmp = alloca %"class.llvh::StringRef", align 8
  store ptr %path, ptr %path.addr, align 8
  store i32 %style, ptr %style.addr, align 4
  call void @_ZN4llvh11SmallStringILj128EEC2Ev(ptr noundef nonnull align 8 dereferenceable(144) %path_storage)
  %0 = load ptr, ptr %path.addr, align 8
  %call = call { ptr, i64 } @_ZNK4llvh5Twine11toStringRefERNS_15SmallVectorImplIcEE(ptr noundef nonnull align 8 dereferenceable(18) %0, ptr noundef nonnull align 8 dereferenceable(16) %path_storage)
  %1 = getelementptr inbounds { ptr, i64 }, ptr %p, i32 0, i32 0
  %2 = extractvalue { ptr, i64 } %call, 0
  store ptr %2, ptr %1, align 8
  %3 = getelementptr inbounds { ptr, i64 }, ptr %p, i32 0, i32 1
  %4 = extractvalue { ptr, i64 } %call, 1
  store i64 %4, ptr %3, align 8
  call void @llvm.memcpy.p0.p0.i64(ptr align 8 %agg.tmp, ptr align 8 %p, i64 16, i1 false)
  %5 = load i32, ptr %style.addr, align 4
  %6 = getelementptr inbounds { ptr, i64 }, ptr %agg.tmp, i32 0, i32 0
  %7 = load ptr, ptr %6, align 8
  %8 = getelementptr inbounds { ptr, i64 }, ptr %agg.tmp, i32 0, i32 1
  %9 = load i64, ptr %8, align 8
  %call1 = call { ptr, i64 } @_ZN4llvh3sys4path13relative_pathENS_9StringRefENS1_5StyleE(ptr %7, i64 %9, i32 noundef %5)
  %10 = getelementptr inbounds { ptr, i64 }, ptr %ref.tmp, i32 0, i32 0
  %11 = extractvalue { ptr, i64 } %call1, 0
  store ptr %11, ptr %10, align 8
  %12 = getelementptr inbounds { ptr, i64 }, ptr %ref.tmp, i32 0, i32 1
  %13 = extractvalue { ptr, i64 } %call1, 1
  store i64 %13, ptr %12, align 8
  store ptr %ref.tmp, ptr %this.addr.i, align 8
  %this1.i = load ptr, ptr %this.addr.i, align 8
  %Length.i = getelementptr inbounds %"class.llvh::StringRef", ptr %this1.i, i32 0, i32 1
  %14 = load i64, ptr %Length.i, align 8
  %cmp.i = icmp eq i64 %14, 0
  %lnot = xor i1 %cmp.i, true
  call void @_ZN4llvh11SmallStringILj128EED2Ev(ptr noundef nonnull align 8 dereferenceable(144) %path_storage) #9
  ret i1 %lnot
}