; Function Attrs: mustprogress nounwind uwtable
define hidden noundef zeroext i1 @_ZN4llvh3sys4path17has_relative_pathERKNS_5TwineENS1_5StyleE(ptr noundef nonnull align 8 dereferenceable(18) %path, i32 noundef %style) local_unnamed_addr #0 {
entry:
  %path_storage = alloca %"class.llvh::SmallString.11", align 8
  %add.ptr.i.i.i.i.i.i = getelementptr inbounds i8, ptr %path_storage, i64 16
  store ptr %add.ptr.i.i.i.i.i.i, ptr %path_storage, align 8
  %Size.i.i.i.i.i.i = getelementptr inbounds i8, ptr %path_storage, i64 8
  store i32 0, ptr %Size.i.i.i.i.i.i, align 8
  %Capacity2.i.i.i.i.i.i = getelementptr inbounds i8, ptr %path_storage, i64 12
  store i32 128, ptr %Capacity2.i.i.i.i.i.i, align 4
  %call = call { ptr, i64 } @_ZNK4llvh5Twine11toStringRefERNS_15SmallVectorImplIcEE(ptr noundef nonnull align 8 dereferenceable(18) %path, ptr noundef nonnull align 8 dereferenceable(16) %path_storage)
  %0 = extractvalue { ptr, i64 } %call, 0
  %1 = extractvalue { ptr, i64 } %call, 1
  %call.i = call { ptr, i64 } @_ZN4llvh3sys4path9root_pathENS_9StringRefENS1_5StyleE(ptr %0, i64 %1, i32 noundef %style)
  %2 = load ptr, ptr %path_storage, align 8
  %cmp.i.i.i.i = icmp eq ptr %2, %add.ptr.i.i.i.i.i.i
  br i1 %cmp.i.i.i.i, label %_ZN4llvh11SmallStringILj128EED2Ev.exit, label %if.then.i.i.i

if.then.i.i.i:                                    ; preds = %entry
  call void @free(ptr noundef %2) #29
  br label %_ZN4llvh11SmallStringILj128EED2Ev.exit

_ZN4llvh11SmallStringILj128EED2Ev.exit:           ; preds = %entry, %if.then.i.i.i
  %3 = extractvalue { ptr, i64 } %call.i, 1
  %cmp.i = icmp ugt i64 %1, %3
  ret i1 %cmp.i
}